target datalayout = "e-m:e-p270:32:32-p271:32:32-p272:64:64-i64:64-i128:128-f80:128-n8:16:32:64-S128"
target triple = "x86_64-pc-linux-gnu"

%struct.__loadu_ps = type { <4 x float> }
%struct.__storeu_ps = type { <4 x float> }

; Function Attrs: alwaysinline nounwind uwtable
define available_externally <4 x float> @_mm_set1_ps(float noundef %0) #2 {
  %2 = alloca float, align 4
  %3 = alloca <4 x float>, align 16
  store float %0, ptr %2, align 4, !tbaa !29
  %4 = load float, ptr %2, align 4, !tbaa !29
  %5 = insertelement <4 x float> poison, float %4, i32 0
  %6 = load float, ptr %2, align 4, !tbaa !29
  %7 = insertelement <4 x float> %5, float %6, i32 1
  %8 = load float, ptr %2, align 4, !tbaa !29
  %9 = insertelement <4 x float> %7, float %8, i32 2
  %10 = load float, ptr %2, align 4, !tbaa !29
  %11 = insertelement <4 x float> %9, float %10, i32 3
  store <4 x float> %11, ptr %3, align 16, !tbaa !12
  %12 = load <4 x float>, ptr %3, align 16, !tbaa !12
  ret <4 x float> %12
}

; Function Attrs: alwaysinline nounwind uwtable
define available_externally void @_mm_storeu_ps(ptr noundef %0, <4 x float> noundef %1) #2 {
  %3 = alloca ptr, align 8
  %4 = alloca <4 x float>, align 16
  store ptr %0, ptr %3, align 8, !tbaa !21
  store <4 x float> %1, ptr %4, align 16, !tbaa !12
  %5 = load <4 x float>, ptr %4, align 16, !tbaa !12
  %6 = load ptr, ptr %3, align 8, !tbaa !21
  %7 = getelementptr inbounds nuw %struct.__storeu_ps, ptr %6, i32 0, i32 0
  store <4 x float> %5, ptr %7, align 1, !tbaa !12
  ret void
}

; Function Attrs: alwaysinline nounwind uwtable
define available_externally <4 x float> @_mm_mul_ps(<4 x float> noundef %0, <4 x float> noundef %1) #2 {
  %3 = alloca <4 x float>, align 16
  %4 = alloca <4 x float>, align 16
  store <4 x float> %0, ptr %3, align 16, !tbaa !12
  store <4 x float> %1, ptr %4, align 16, !tbaa !12
  %5 = load <4 x float>, ptr %3, align 16, !tbaa !12
  %6 = load <4 x float>, ptr %4, align 16, !tbaa !12
  %7 = fmul <4 x float> %5, %6
  ret <4 x float> %7
}

; Function Attrs: alwaysinline nounwind uwtable
define available_externally <4 x float> @_mm_loadu_ps(ptr noundef %0) #2 {
  %2 = alloca ptr, align 8
  store ptr %0, ptr %2, align 8, !tbaa !21
  %3 = load ptr, ptr %2, align 8, !tbaa !21
  %4 = getelementptr inbounds nuw %struct.__loadu_ps, ptr %3, i32 0, i32 0
  %5 = load <4 x float>, ptr %4, align 1, !tbaa !12
  ret <4 x float> %5
}

; Function Attrs: alwaysinline nounwind uwtable
define available_externally <4 x float> @_mm_set_ps1(float noundef %0) #2 {
  %2 = alloca float, align 4
  store float %0, ptr %2, align 4, !tbaa !29
  %3 = load float, ptr %2, align 4, !tbaa !29
  %4 = call <4 x float> @_mm_set1_ps(float noundef %3)
  ret <4 x float> %4
}

; Function Attrs: nounwind uwtable
define void @stbir__simple_alpha_unweight_4ch(ptr noundef %0, i32 noundef %1) #0 {
  %3 = alloca ptr, align 8
  %4 = alloca i32, align 4
  %5 = alloca ptr, align 8
  %6 = alloca ptr, align 8
  %7 = alloca float, align 4
  %8 = alloca <4 x float>, align 16
  %9 = alloca <4 x float>, align 16
  store ptr %0, ptr %3, align 8, !tbaa !21
  store i32 %1, ptr %4, align 4, !tbaa !26
  call void @llvm.lifetime.start.p0(i64 8, ptr %5) #12
  %10 = load ptr, ptr %3, align 8, !tbaa !21
  store ptr %10, ptr %5, align 8, !tbaa !21
  call void @llvm.lifetime.start.p0(i64 8, ptr %6) #12
  %11 = load ptr, ptr %3, align 8, !tbaa !21
  %12 = load i32, ptr %4, align 4, !tbaa !26
  %13 = sext i32 %12 to i64
  %14 = getelementptr inbounds float, ptr %11, i64 %13
  store ptr %14, ptr %6, align 8, !tbaa !21
  br label %15

15:                                               ; preds = %39, %2
  call void @llvm.lifetime.start.p0(i64 4, ptr %7) #12
  %16 = load ptr, ptr %5, align 8, !tbaa !21
  %17 = getelementptr inbounds float, ptr %16, i64 3
  %18 = load float, ptr %17, align 4, !tbaa !29
  store float %18, ptr %7, align 4, !tbaa !29
  call void @llvm.lifetime.start.p0(i64 16, ptr %8) #12
  call void @llvm.lifetime.start.p0(i64 16, ptr %9) #12
  %19 = load ptr, ptr %5, align 8, !tbaa !21
  call void asm sideeffect "", "r,~{dirflag},~{fpsr},~{flags}"(ptr %19) #12, !srcloc !512
  %20 = load float, ptr %7, align 4, !tbaa !29
  %21 = fcmp oge float %20, 0x3870000000000000
  br i1 %21, label %22, label %36

22:                                               ; preds = %15
  %23 = load float, ptr %7, align 4, !tbaa !29
  %24 = fdiv float 1.000000e+00, %23
  %25 = call <4 x float> @_mm_set_ps1(float noundef %24)
  store <4 x float> %25, ptr %9, align 16, !tbaa !12
  %26 = load ptr, ptr %5, align 8, !tbaa !21
  %27 = call <4 x float> @_mm_loadu_ps(ptr noundef %26)
  store <4 x float> %27, ptr %8, align 16, !tbaa !12
  %28 = load <4 x float>, ptr %8, align 16, !tbaa !12
  %29 = load <4 x float>, ptr %9, align 16, !tbaa !12
  %30 = call <4 x float> @_mm_mul_ps(<4 x float> noundef %28, <4 x float> noundef %29)
  store <4 x float> %30, ptr %8, align 16, !tbaa !12
  %31 = load ptr, ptr %5, align 8, !tbaa !21
  %32 = load <4 x float>, ptr %8, align 16, !tbaa !12
  call void @_mm_storeu_ps(ptr noundef %31, <4 x float> noundef %32)
  %33 = load float, ptr %7, align 4, !tbaa !29
  %34 = load ptr, ptr %5, align 8, !tbaa !21
  %35 = getelementptr inbounds float, ptr %34, i64 3
  store float %33, ptr %35, align 4, !tbaa !29
  br label %36

36:                                               ; preds = %22, %15
  %37 = load ptr, ptr %5, align 8, !tbaa !21
  %38 = getelementptr inbounds float, ptr %37, i64 4
  store ptr %38, ptr %5, align 8, !tbaa !21
  call void @llvm.lifetime.end.p0(i64 16, ptr %9) #12
  call void @llvm.lifetime.end.p0(i64 16, ptr %8) #12
  call void @llvm.lifetime.end.p0(i64 4, ptr %7) #12
  br label %39

39:                                               ; preds = %36
  %40 = load ptr, ptr %5, align 8, !tbaa !21
  %41 = load ptr, ptr %6, align 8, !tbaa !21
  %42 = icmp ult ptr %40, %41
  br i1 %42, label %15, label %43, !llvm.loop !513

43:                                               ; preds = %39
  call void @llvm.lifetime.end.p0(i64 8, ptr %6) #12
  call void @llvm.lifetime.end.p0(i64 8, ptr %5) #12
  ret void
}