; Function Attrs: nounwind uwtable
define void @stbir__simple_alpha_unweight_4ch(ptr noundef %0, i32 noundef %1) #0 {
  %3 = sext i32 %1 to i64
  %4 = getelementptr inbounds float, ptr %0, i64 %3
  br label %5

5:                                                ; preds = %15, %2
  %.0 = phi ptr [ %0, %2 ], [ %16, %15 ]
  %6 = getelementptr inbounds nuw i8, ptr %.0, i64 12
  %7 = load float, ptr %6, align 4, !tbaa !50
  tail call void asm sideeffect "", "r,~{dirflag},~{fpsr},~{flags}"(ptr %.0) #24, !srcloc !438
  %8 = fcmp ult float %7, 0x3870000000000000
  br i1 %8, label %15, label %9

9:                                                ; preds = %5
  %10 = fdiv float 1.000000e+00, %7
  %11 = insertelement <4 x float> poison, float %10, i64 0
  %12 = shufflevector <4 x float> %11, <4 x float> poison, <4 x i32> zeroinitializer
  %13 = load <4 x float>, ptr %.0, align 1, !tbaa !4
  %14 = fmul <4 x float> %12, %13
  store <4 x float> %14, ptr %.0, align 1, !tbaa !4
  store float %7, ptr %6, align 4, !tbaa !50
  br label %15

15:                                               ; preds = %9, %5
  %16 = getelementptr inbounds nuw i8, ptr %.0, i64 16
  %17 = icmp ult ptr %16, %4
  br i1 %17, label %5, label %18, !llvm.loop !439

18:                                               ; preds = %15
  ret void
}